
obj/testrom.elf:	file format elf32-littleriscv

Disassembly of section .text:

20000000 <_start>:
20000000: e2100117     	auipc	sp, 0xe2100
20000004: 03810113     	addi	sp, sp, 0x38
20000008: 00000297     	auipc	t0, 0x0
2000000c: 01c28293     	addi	t0, t0, 0x1c
20000010: 7c229073     	csrw	0x7c2, t0
20000014: 420000ef     	jal	0x20000434 <_init>
20000018: 06200893     	li	a7, 0x62
2000001c: 00000073     	ecall
20000020: 00100073     	ebreak

20000024 <_gameloop>:
20000024: ff010113     	addi	sp, sp, -0x10
20000028: 00112623     	sw	ra, 0xc(sp)
2000002c: 49c000ef     	jal	0x200004c8 <_update>
20000030: 68c000ef     	jal	0x200006bc <_draw>
20000034: 06300893     	li	a7, 0x63
20000038: 00000073     	ecall
2000003c: 00c12083     	lw	ra, 0xc(sp)
20000040: 01010113     	addi	sp, sp, 0x10
20000044: 00008067     	ret

20000048 <pget>:
20000048: 06500893     	li	a7, 0x65
2000004c: 00000073     	ecall
20000050: 00008067     	ret

20000054 <pset>:
20000054: 06600893     	li	a7, 0x66
20000058: 00000073     	ecall
2000005c: 00008067     	ret

20000060 <cls>:
20000060: 06900893     	li	a7, 0x69
20000064: 00000073     	ecall
20000068: 00008067     	ret

2000006c <clip>:
2000006c: 06a00893     	li	a7, 0x6a
20000070: 00000073     	ecall
20000074: 00008067     	ret

20000078 <rect>:
20000078: 06b00893     	li	a7, 0x6b
2000007c: 00000073     	ecall
20000080: 00008067     	ret

20000084 <rectfill>:
20000084: 06c00893     	li	a7, 0x6c
20000088: 00000073     	ecall
2000008c: 00008067     	ret

20000090 <line>:
20000090: 06d00893     	li	a7, 0x6d
20000094: 00000073     	ecall
20000098: 00008067     	ret

2000009c <pal>:
2000009c: 06e00893     	li	a7, 0x6e
200000a0: 00000073     	ecall
200000a4: 00008067     	ret

200000a8 <spr_data>:
200000a8: 06f00893     	li	a7, 0x6f
200000ac: 00000073     	ecall
200000b0: 00008067     	ret

200000b4 <spr>:
200000b4: 07000893     	li	a7, 0x70
200000b8: 00000073     	ecall
200000bc: 00008067     	ret

200000c0 <tile>:
200000c0: 07100893     	li	a7, 0x71
200000c4: 00000073     	ecall
200000c8: 00008067     	ret

200000cc <push_offset>:
200000cc: 07200893     	li	a7, 0x72
200000d0: 00000073     	ecall
200000d4: 00008067     	ret

200000d8 <pop_offset>:
200000d8: 07300893     	li	a7, 0x73
200000dc: 00000073     	ecall
200000e0: 00008067     	ret

200000e4 <get_offset>:
200000e4: 07400893     	li	a7, 0x74
200000e8: 00000073     	ecall
200000ec: 00008067     	ret

200000f0 <btn>:
200000f0: 03200893     	li	a7, 0x32
200000f4: 00000073     	ecall
200000f8: 00008067     	ret

200000fc <btnp>:
200000fc: 03300893     	li	a7, 0x33
20000100: 00000073     	ecall
20000104: 00008067     	ret

20000108 <putc>:
20000108: 03400893     	li	a7, 0x34
2000010c: 00000073     	ecall
20000110: 00008067     	ret

20000114 <shutdown>:
20000114: 03500893     	li	a7, 0x35
20000118: 00000073     	ecall
2000011c: 00008067     	ret

20000120 <draw_paddle>:
20000120: 020007b7     	lui	a5, 0x2000
20000124: 00451513     	slli	a0, a0, 0x4
20000128: 00078793     	mv	a5, a5
2000012c: 00a787b3     	add	a5, a5, a0
20000130: 00c7a683     	lw	a3, 0xc(a5)
20000134: 0087a703     	lw	a4, 0x8(a5)
20000138: ff010113     	addi	sp, sp, -0x10
2000013c: 00812423     	sw	s0, 0x8(sp)
20000140: 00200413     	li	s0, 0x2
20000144: 02874733     	div	a4, a4, s0
20000148: 0047a583     	lw	a1, 0x4(a5)
2000014c: 0007a503     	lw	a0, 0x0(a5)
20000150: 00112623     	sw	ra, 0xc(sp)
20000154: 0286c6b3     	div	a3, a3, s0
20000158: 40e50533     	sub	a0, a0, a4
2000015c: 40d585b3     	sub	a1, a1, a3
20000160: f6dff0ef     	jal	0x200000cc <push_offset>
20000164: 20000537     	lui	a0, 0x20000
20000168: 10000593     	li	a1, 0x100
2000016c: 75850513     	addi	a0, a0, 0x758
20000170: f39ff0ef     	jal	0x200000a8 <spr_data>
20000174: 000086b7     	lui	a3, 0x8
20000178: c0068693     	addi	a3, a3, -0x400
2000017c: 3e000613     	li	a2, 0x3e0
20000180: 01f00593     	li	a1, 0x1f
20000184: 00000513     	li	a0, 0x0
20000188: f15ff0ef     	jal	0x2000009c <pal>
2000018c: 00000693     	li	a3, 0x0
20000190: 00000613     	li	a2, 0x0
20000194: 00000593     	li	a1, 0x0
20000198: 00100513     	li	a0, 0x1
2000019c: f19ff0ef     	jal	0x200000b4 <spr>
200001a0: 00040513     	mv	a0, s0
200001a4: 00000693     	li	a3, 0x0
200001a8: 00000613     	li	a2, 0x0
200001ac: 00800593     	li	a1, 0x8
200001b0: f05ff0ef     	jal	0x200000b4 <spr>
200001b4: 00000693     	li	a3, 0x0
200001b8: 00000613     	li	a2, 0x0
200001bc: 01000593     	li	a1, 0x10
200001c0: 00300513     	li	a0, 0x3
200001c4: ef1ff0ef     	jal	0x200000b4 <spr>
200001c8: 00000693     	li	a3, 0x0
200001cc: 00000613     	li	a2, 0x0
200001d0: 01800593     	li	a1, 0x18
200001d4: 00400513     	li	a0, 0x4
200001d8: eddff0ef     	jal	0x200000b4 <spr>
200001dc: 00812403     	lw	s0, 0x8(sp)
200001e0: 00c12083     	lw	ra, 0xc(sp)
200001e4: 01010113     	addi	sp, sp, 0x10
200001e8: ef1ff06f     	j	0x200000d8 <pop_offset>

200001ec <putu>:
200001ec: 06050e63     	beqz	a0, 0x20000268 <putu+0x7c>
200001f0: fe010113     	addi	sp, sp, -0x20
200001f4: 00812c23     	sw	s0, 0x18(sp)
200001f8: 00912a23     	sw	s1, 0x14(sp)
200001fc: 00112e23     	sw	ra, 0x1c(sp)
20000200: 01212823     	sw	s2, 0x10(sp)
20000204: 00000413     	li	s0, 0x0
20000208: 00410493     	addi	s1, sp, 0x4
2000020c: 00a00793     	li	a5, 0xa
20000210: 00900613     	li	a2, 0x9
20000214: 02f576b3     	remu	a3, a0, a5
20000218: 00848733     	add	a4, s1, s0
2000021c: 03068693     	addi	a3, a3, 0x30
20000220: 00d70023     	sb	a3, 0x0(a4)
20000224: 00a67a63     	bgeu	a2, a0, 0x20000238 <putu+0x4c>
20000228: 00140413     	addi	s0, s0, 0x1
2000022c: 02f55533     	divu	a0, a0, a5
20000230: fef412e3     	bne	s0, a5, 0x20000214 <putu+0x28>
20000234: 00900413     	li	s0, 0x9
20000238: fff00913     	li	s2, -0x1
2000023c: 008487b3     	add	a5, s1, s0
20000240: 0007c503     	lbu	a0, 0x0(a5)
20000244: fff40413     	addi	s0, s0, -0x1
20000248: ec1ff0ef     	jal	0x20000108 <putc>
2000024c: ff2418e3     	bne	s0, s2, 0x2000023c <putu+0x50>
20000250: 01c12083     	lw	ra, 0x1c(sp)
20000254: 01812403     	lw	s0, 0x18(sp)
20000258: 01412483     	lw	s1, 0x14(sp)
2000025c: 01012903     	lw	s2, 0x10(sp)
20000260: 02010113     	addi	sp, sp, 0x20
20000264: 00008067     	ret
20000268: 03000513     	li	a0, 0x30
2000026c: e9dff06f     	j	0x20000108 <putc>

20000270 <putsf>:
20000270: fb010113     	addi	sp, sp, -0x50
20000274: 04f12223     	sw	a5, 0x44(sp)
20000278: 03410793     	addi	a5, sp, 0x34
2000027c: 02812423     	sw	s0, 0x28(sp)
20000280: 02912223     	sw	s1, 0x24(sp)
20000284: 03212023     	sw	s2, 0x20(sp)
20000288: 01312e23     	sw	s3, 0x1c(sp)
2000028c: 01412c23     	sw	s4, 0x18(sp)
20000290: 01512a23     	sw	s5, 0x14(sp)
20000294: 02112623     	sw	ra, 0x2c(sp)
20000298: 01612823     	sw	s6, 0x10(sp)
2000029c: 00050413     	mv	s0, a0
200002a0: 02b12a23     	sw	a1, 0x34(sp)
200002a4: 02c12c23     	sw	a2, 0x38(sp)
200002a8: 02d12e23     	sw	a3, 0x3c(sp)
200002ac: 04e12023     	sw	a4, 0x40(sp)
200002b0: 05012423     	sw	a6, 0x48(sp)
200002b4: 05112623     	sw	a7, 0x4c(sp)
200002b8: 00f12623     	sw	a5, 0xc(sp)
200002bc: 02500493     	li	s1, 0x25
200002c0: 06900913     	li	s2, 0x69
200002c4: 07300993     	li	s3, 0x73
200002c8: 07500a13     	li	s4, 0x75
200002cc: 06300a93     	li	s5, 0x63
200002d0: 00044503     	lbu	a0, 0x0(s0)
200002d4: 02051663     	bnez	a0, 0x20000300 <putsf+0x90>
200002d8: 02c12083     	lw	ra, 0x2c(sp)
200002dc: 02812403     	lw	s0, 0x28(sp)
200002e0: 02412483     	lw	s1, 0x24(sp)
200002e4: 02012903     	lw	s2, 0x20(sp)
200002e8: 01c12983     	lw	s3, 0x1c(sp)
200002ec: 01812a03     	lw	s4, 0x18(sp)
200002f0: 01412a83     	lw	s5, 0x14(sp)
200002f4: 01012b03     	lw	s6, 0x10(sp)
200002f8: 05010113     	addi	sp, sp, 0x50
200002fc: 00008067     	ret
20000300: 0a951e63     	bne	a0, s1, 0x200003bc <putsf+0x14c>
20000304: 00144783     	lbu	a5, 0x1(s0)
20000308: 00140b13     	addi	s6, s0, 0x1
2000030c: 05278063     	beq	a5, s2, 0x2000034c <putsf+0xdc>
20000310: 02f96063     	bltu	s2, a5, 0x20000330 <putsf+0xc0>
20000314: 00048513     	mv	a0, s1
20000318: 06978c63     	beq	a5, s1, 0x20000390 <putsf+0x120>
2000031c: 07578263     	beq	a5, s5, 0x20000380 <putsf+0x110>
20000320: 02500513     	li	a0, 0x25
20000324: de5ff0ef     	jal	0x20000108 <putc>
20000328: 00144503     	lbu	a0, 0x1(s0)
2000032c: 0640006f     	j	0x20000390 <putsf+0x120>
20000330: 07378463     	beq	a5, s3, 0x20000398 <putsf+0x128>
20000334: ff4796e3     	bne	a5, s4, 0x20000320 <putsf+0xb0>
20000338: 00c12783     	lw	a5, 0xc(sp)
2000033c: 00478713     	addi	a4, a5, 0x4
20000340: 0007a503     	lw	a0, 0x0(a5)
20000344: 00e12623     	sw	a4, 0xc(sp)
20000348: 0280006f     	j	0x20000370 <putsf+0x100>
2000034c: 00c12783     	lw	a5, 0xc(sp)
20000350: 0007a403     	lw	s0, 0x0(a5)
20000354: 00478713     	addi	a4, a5, 0x4
20000358: 00e12623     	sw	a4, 0xc(sp)
2000035c: 00045863     	bgez	s0, 0x2000036c <putsf+0xfc>
20000360: 02d00513     	li	a0, 0x2d
20000364: da5ff0ef     	jal	0x20000108 <putc>
20000368: 40800433     	neg	s0, s0
2000036c: 00040513     	mv	a0, s0
20000370: e7dff0ef     	jal	0x200001ec <putu>
20000374: 000b0413     	mv	s0, s6
20000378: 00140413     	addi	s0, s0, 0x1
2000037c: f55ff06f     	j	0x200002d0 <putsf+0x60>
20000380: 00c12783     	lw	a5, 0xc(sp)
20000384: 0007c503     	lbu	a0, 0x0(a5)
20000388: 00478713     	addi	a4, a5, 0x4
2000038c: 00e12623     	sw	a4, 0xc(sp)
20000390: d79ff0ef     	jal	0x20000108 <putc>
20000394: fe1ff06f     	j	0x20000374 <putsf+0x104>
20000398: 00c12783     	lw	a5, 0xc(sp)
2000039c: 0007a403     	lw	s0, 0x0(a5)
200003a0: 00478713     	addi	a4, a5, 0x4
200003a4: 00e12623     	sw	a4, 0xc(sp)
200003a8: 00044503     	lbu	a0, 0x0(s0)
200003ac: fc0504e3     	beqz	a0, 0x20000374 <putsf+0x104>
200003b0: d59ff0ef     	jal	0x20000108 <putc>
200003b4: 00140413     	addi	s0, s0, 0x1
200003b8: ff1ff06f     	j	0x200003a8 <putsf+0x138>
200003bc: d4dff0ef     	jal	0x20000108 <putc>
200003c0: fb9ff06f     	j	0x20000378 <putsf+0x108>

200003c4 <check_collision.constprop.0>:
200003c4: 00c52583     	lw	a1, 0xc(a0)
200003c8: 00852883     	lw	a7, 0x8(a0)
200003cc: 00200693     	li	a3, 0x2
200003d0: 02d5c5b3     	div	a1, a1, a3
200003d4: 020007b7     	lui	a5, 0x2000
200003d8: 00078793     	mv	a5, a5
200003dc: 0207a703     	lw	a4, 0x20(a5)
200003e0: 00452603     	lw	a2, 0x4(a0)
200003e4: 0247a783     	lw	a5, 0x24(a5)
200003e8: 00052803     	lw	a6, 0x0(a0)
200003ec: 02d8c8b3     	div	a7, a7, a3
200003f0: 40b60533     	sub	a0, a2, a1
200003f4: 00478693     	addi	a3, a5, 0x4
200003f8: 00a6a6b3     	slt	a3, a3, a0
200003fc: 00470513     	addi	a0, a4, 0x4
20000400: ffc70713     	addi	a4, a4, -0x4
20000404: 00b60633     	add	a2, a2, a1
20000408: 41180333     	sub	t1, a6, a7
2000040c: 00652533     	slt	a0, a0, t1
20000410: 01180833     	add	a6, a6, a7
20000414: 00a6e6b3     	or	a3, a3, a0
20000418: 00e82733     	slt	a4, a6, a4
2000041c: ffc78513     	addi	a0, a5, -0x4
20000420: 00d76733     	or	a4, a4, a3
20000424: 00a62533     	slt	a0, a2, a0
20000428: 00e56533     	or	a0, a0, a4
2000042c: 00154513     	xori	a0, a0, 0x1
20000430: 00008067     	ret

20000434 <_init>:
20000434: ff010113     	addi	sp, sp, -0x10
20000438: 020007b7     	lui	a5, 0x2000
2000043c: 00112623     	sw	ra, 0xc(sp)
20000440: 00078793     	mv	a5, a5
20000444: 04000713     	li	a4, 0x40
20000448: 02e7a023     	sw	a4, 0x20(a5)
2000044c: 02800713     	li	a4, 0x28
20000450: 02e7a223     	sw	a4, 0x24(a5)
20000454: fff00713     	li	a4, -0x1
20000458: 02e7a823     	sw	a4, 0x30(a5)
2000045c: 00100713     	li	a4, 0x1
20000460: 05000613     	li	a2, 0x50
20000464: 02e7aa23     	sw	a4, 0x34(a5)
20000468: 021005b7     	lui	a1, 0x2100
2000046c: 06e00713     	li	a4, 0x6e
20000470: 20000537     	lui	a0, 0x20000
20000474: 02000693     	li	a3, 0x20
20000478: 00c7a023     	sw	a2, 0x0(a5)
2000047c: 00e7a223     	sw	a4, 0x4(a5)
20000480: 00c7a823     	sw	a2, 0x10(a5)
20000484: 00600713     	li	a4, 0x6
20000488: 00a00613     	li	a2, 0xa
2000048c: 03858593     	addi	a1, a1, 0x38
20000490: 73050513     	addi	a0, a0, 0x730
20000494: 00d7a423     	sw	a3, 0x8(a5)
20000498: 00e7a623     	sw	a4, 0xc(a5)
2000049c: 00c7aa23     	sw	a2, 0x14(a5)
200004a0: 00d7ac23     	sw	a3, 0x18(a5)
200004a4: 00e7ae23     	sw	a4, 0x1c(a5)
200004a8: dc9ff0ef     	jal	0x20000270 <putsf>
200004ac: 00c12083     	lw	ra, 0xc(sp)
200004b0: 021005b7     	lui	a1, 0x2100
200004b4: 20000537     	lui	a0, 0x20000
200004b8: 03858593     	addi	a1, a1, 0x38
200004bc: 74450513     	addi	a0, a0, 0x744
200004c0: 01010113     	addi	sp, sp, 0x10
200004c4: dadff06f     	j	0x20000270 <putsf>

200004c8 <_update>:
200004c8: ff010113     	addi	sp, sp, -0x10
200004cc: 00812423     	sw	s0, 0x8(sp)
200004d0: 02000437     	lui	s0, 0x2000
200004d4: 00040413     	mv	s0, s0
200004d8: 02042703     	lw	a4, 0x20(s0)
200004dc: 03042783     	lw	a5, 0x30(s0)
200004e0: 00112623     	sw	ra, 0xc(sp)
200004e4: 02442683     	lw	a3, 0x24(s0)
200004e8: 02e42423     	sw	a4, 0x28(s0)
200004ec: 00f70733     	add	a4, a4, a5
200004f0: 03442783     	lw	a5, 0x34(s0)
200004f4: 02d42623     	sw	a3, 0x2c(s0)
200004f8: 02e42023     	sw	a4, 0x20(s0)
200004fc: 00d787b3     	add	a5, a5, a3
20000500: 02f42223     	sw	a5, 0x24(s0)
20000504: 01842783     	lw	a5, 0x18(s0)
20000508: 00200693     	li	a3, 0x2
2000050c: 02d7c7b3     	div	a5, a5, a3
20000510: 00f74a63     	blt	a4, a5, 0x20000524 <_update+0x5c>
20000514: 0a000693     	li	a3, 0xa0
20000518: 40f687b3     	sub	a5, a3, a5
2000051c: 00f75463     	bge	a4, a5, 0x20000524 <_update+0x5c>
20000520: 00070793     	mv	a5, a4
20000524: 00000593     	li	a1, 0x0
20000528: 00000513     	li	a0, 0x0
2000052c: 00f42823     	sw	a5, 0x10(s0)
20000530: bc1ff0ef     	jal	0x200000f0 <btn>
20000534: 02050463     	beqz	a0, 0x2000055c <_update+0x94>
20000538: 00842703     	lw	a4, 0x8(s0)
2000053c: 00200693     	li	a3, 0x2
20000540: 00042783     	lw	a5, 0x0(s0)
20000544: 02d74733     	div	a4, a4, a3
20000548: fff78793     	addi	a5, a5, -0x1
2000054c: 00f42023     	sw	a5, 0x0(s0)
20000550: 40e787b3     	sub	a5, a5, a4
20000554: 0007d463     	bgez	a5, 0x2000055c <_update+0x94>
20000558: 00e42023     	sw	a4, 0x0(s0)
2000055c: 00000593     	li	a1, 0x0
20000560: 00100513     	li	a0, 0x1
20000564: b8dff0ef     	jal	0x200000f0 <btn>
20000568: 02050a63     	beqz	a0, 0x2000059c <_update+0xd4>
2000056c: 00842703     	lw	a4, 0x8(s0)
20000570: 00200693     	li	a3, 0x2
20000574: 00042783     	lw	a5, 0x0(s0)
20000578: 02d74733     	div	a4, a4, a3
2000057c: 09f00693     	li	a3, 0x9f
20000580: 00178793     	addi	a5, a5, 0x1
20000584: 00f42023     	sw	a5, 0x0(s0)
20000588: 00e787b3     	add	a5, a5, a4
2000058c: 00f6d863     	bge	a3, a5, 0x2000059c <_update+0xd4>
20000590: 0a000793     	li	a5, 0xa0
20000594: 40e787b3     	sub	a5, a5, a4
20000598: 00f42023     	sw	a5, 0x0(s0)
2000059c: 02042783     	lw	a5, 0x20(s0)
200005a0: 09700713     	li	a4, 0x97
200005a4: ffc78693     	addi	a3, a5, -0x4
200005a8: 02d77663     	bgeu	a4, a3, 0x200005d4 <_update+0x10c>
200005ac: 09c00713     	li	a4, 0x9c
200005b0: 00f75463     	bge	a4, a5, 0x200005b8 <_update+0xf0>
200005b4: 00070793     	mv	a5, a4
200005b8: 00400713     	li	a4, 0x4
200005bc: 00e7d463     	bge	a5, a4, 0x200005c4 <_update+0xfc>
200005c0: 00070793     	mv	a5, a4
200005c4: 02f42023     	sw	a5, 0x20(s0)
200005c8: 03042783     	lw	a5, 0x30(s0)
200005cc: 40f007b3     	neg	a5, a5
200005d0: 02f42823     	sw	a5, 0x30(s0)
200005d4: 02442783     	lw	a5, 0x24(s0)
200005d8: 00300713     	li	a4, 0x3
200005dc: 0af74263     	blt	a4, a5, 0x20000680 <_update+0x1b8>
200005e0: 021006b7     	lui	a3, 0x2100
200005e4: 0386a783     	lw	a5, 0x38(a3)
200005e8: 00432737     	lui	a4, 0x432
200005ec: cc670713     	addi	a4, a4, -0x33a
200005f0: 02e787b3     	mul	a5, a5, a4
200005f4: 0023d737     	lui	a4, 0x23d
200005f8: 77470713     	addi	a4, a4, 0x774
200005fc: 00e787b3     	add	a5, a5, a4
20000600: 02f6ac23     	sw	a5, 0x38(a3)
20000604: 03f7f793     	andi	a5, a5, 0x3f
20000608: 02078793     	addi	a5, a5, 0x20
2000060c: 02f42023     	sw	a5, 0x20(s0)
20000610: 01e00793     	li	a5, 0x1e
20000614: 02f42223     	sw	a5, 0x24(s0)
20000618: 00100793     	li	a5, 0x1
2000061c: 02f42a23     	sw	a5, 0x34(s0)
20000620: 00040513     	mv	a0, s0
20000624: da1ff0ef     	jal	0x200003c4 <check_collision.constprop.0>
20000628: 02050063     	beqz	a0, 0x20000648 <_update+0x180>
2000062c: 02842783     	lw	a5, 0x28(s0)
20000630: 02f42023     	sw	a5, 0x20(s0)
20000634: 02c42783     	lw	a5, 0x2c(s0)
20000638: 02f42223     	sw	a5, 0x24(s0)
2000063c: 03442783     	lw	a5, 0x34(s0)
20000640: 40f007b3     	neg	a5, a5
20000644: 02f42a23     	sw	a5, 0x34(s0)
20000648: 01040513     	addi	a0, s0, 0x10
2000064c: d79ff0ef     	jal	0x200003c4 <check_collision.constprop.0>
20000650: 02050063     	beqz	a0, 0x20000670 <_update+0x1a8>
20000654: 02842783     	lw	a5, 0x28(s0)
20000658: 02f42023     	sw	a5, 0x20(s0)
2000065c: 02c42783     	lw	a5, 0x2c(s0)
20000660: 02f42223     	sw	a5, 0x24(s0)
20000664: 03442783     	lw	a5, 0x34(s0)
20000668: 40f007b3     	neg	a5, a5
2000066c: 02f42a23     	sw	a5, 0x34(s0)
20000670: 00c12083     	lw	ra, 0xc(sp)
20000674: 00812403     	lw	s0, 0x8(sp)
20000678: 01010113     	addi	sp, sp, 0x10
2000067c: 00008067     	ret
20000680: 07b00713     	li	a4, 0x7b
20000684: f8f75ee3     	bge	a4, a5, 0x20000620 <_update+0x158>
20000688: 021006b7     	lui	a3, 0x2100
2000068c: 0386a783     	lw	a5, 0x38(a3)
20000690: 00432737     	lui	a4, 0x432
20000694: cc670713     	addi	a4, a4, -0x33a
20000698: 02e787b3     	mul	a5, a5, a4
2000069c: 0023d737     	lui	a4, 0x23d
200006a0: 77470713     	addi	a4, a4, 0x774
200006a4: 00e787b3     	add	a5, a5, a4
200006a8: 05000713     	li	a4, 0x50
200006ac: 02f6ac23     	sw	a5, 0x38(a3)
200006b0: 02e7f7b3     	remu	a5, a5, a4
200006b4: 01878793     	addi	a5, a5, 0x18
200006b8: f55ff06f     	j	0x2000060c <_update+0x144>

200006bc <_draw>:
200006bc: ff010113     	addi	sp, sp, -0x10
200006c0: 00000513     	li	a0, 0x0
200006c4: 00112623     	sw	ra, 0xc(sp)
200006c8: 999ff0ef     	jal	0x20000060 <cls>
200006cc: 00000513     	li	a0, 0x0
200006d0: a51ff0ef     	jal	0x20000120 <draw_paddle>
200006d4: 00100513     	li	a0, 0x1
200006d8: a49ff0ef     	jal	0x20000120 <draw_paddle>
200006dc: 20000537     	lui	a0, 0x20000
200006e0: 10000593     	li	a1, 0x100
200006e4: 75850513     	addi	a0, a0, 0x758
200006e8: 9c1ff0ef     	jal	0x200000a8 <spr_data>
200006ec: 000086b7     	lui	a3, 0x8
200006f0: c0068693     	addi	a3, a3, -0x400
200006f4: 3e000613     	li	a2, 0x3e0
200006f8: 01f00593     	li	a1, 0x1f
200006fc: 00000513     	li	a0, 0x0
20000700: 99dff0ef     	jal	0x2000009c <pal>
20000704: 020007b7     	lui	a5, 0x2000
20000708: 00078793     	mv	a5, a5
2000070c: 0247a603     	lw	a2, 0x24(a5)
20000710: 0207a583     	lw	a1, 0x20(a5)
20000714: 00c12083     	lw	ra, 0xc(sp)
20000718: 00000693     	li	a3, 0x0
2000071c: ffc60613     	addi	a2, a2, -0x4
20000720: ffc58593     	addi	a1, a1, -0x4
20000724: 00000513     	li	a0, 0x0
20000728: 01010113     	addi	sp, sp, 0x10
2000072c: 989ff06f     	j	0x200000b4 <spr>
